; Function Attrs: mustprogress uwtable
define hidden void @_ZNK10params_ref7displayERSo(ptr nocapture noundef nonnull readonly align 8 dereferenceable(8) %this, ptr noundef nonnull align 8 dereferenceable(8) %out) local_unnamed_addr #3 align 2 {
entry:
  %0 = load ptr, ptr %this, align 8
  %tobool.not = icmp eq ptr %0, null
  br i1 %tobool.not, label %if.else, label %if.then

if.then:                                          ; preds = %entry
  tail call void @_ZNK6params7displayERSo(ptr noundef nonnull align 8 dereferenceable(12) %0, ptr noundef nonnull align 8 dereferenceable(8) %out)
  br label %if.end

if.else:                                          ; preds = %entry
  %call = tail call noundef nonnull align 8 dereferenceable(8) ptr @_ZStlsISt11char_traitsIcEERSt13basic_ostreamIcT_ES5_PKc(ptr noundef nonnull align 8 dereferenceable(8) %out, ptr noundef nonnull @.str.20)
  br label %if.end

if.end:                                           ; preds = %if.else, %if.then
  ret void
}